(dp0
Vall
p1
I10512
sVliar
p2
I61
sVexcellent
p3
I144
sVsouls
p4
I21
sVSpock
p5
I4069
sVgo
p6
I4295
sVcaptain
p7
I840
sVsaved
p8
I217
sVto
p9
I92092
sVcritical
p10
I138
sVunder
p11
I962
sVpleasing
p12
I14
sVvery
p13
I3272
sVfrequencies
p14
I190
sVworst
p15
I107
sVlittle
p16
I2643
sVcondition
p17
I414
sVJust
p18
I1485
sVtravels
p19
I24
sVCourse
p20
I88
sVHe
p21
I6792
sVheading
p22
I328
sVdish
p23
I47
sVeven
p24
I2069
sVwill
p25
I10495
sVwhat
p26
I11347
sVillogical
p27
I126
sVemotions
p28
I206
sVfind
p29
I3613
sVever
p30
I1557
sVMe
p31
I252
sVnever
p32
I3391
sVhours
p33
I1691
sVmet
p34
I438
sVlet
p35
I2541
sVMy
p36
I2658
sVchange
p37
I799
sVchanged
p38
I401
sVtasks
p39
I22
sVlove
p40
I999
sVDoctor
p41
I4963
sVwin
p42
I207
sVWhen
p43
I1626
sVlogical
p44
I323
sVhighly
p45
I238
sVimprobable
p46
I14
sVfrom
p47
I8015
sVtakes
p48
I284
sVremains
p49
I161
sVrevelation
p50
I3
sVfew
p51
I1805
sVcall
p52
I1171
sVtell
p53
I2869
sVEngage
p54
I127
sVThese
p55
I607
sVSo
p56
I2573
sVTime
p57
I203
sVknown
p58
I601
sVphasers
p59
I483
sVmust
p60
I3864
sVme
p61
I19243
sVNow
p62
I2871
sVword
p63
I635
sVthis
p64
I17184
sVsoul
p65
I77
sVcan
p66
I11486
sVservants
p67
I19
sVmy
p68
I13423
sVYour
p69
I2452
sVOut
p70
I96
sVweaker
p71
I13
sVfigure
p72
I317
sVdo
p73
I23338
sVprocess
p74
I245
sVaccept
p75
I468
sVsomething
p76
I3640
sVwant
p77
I6367
sVspecies
p78
I624
sVsir
p79
I6736
sVneeds
p80
I495
sVend
p81
I809
sVhow
p82
I3760
sVinstead
p83
I164
sVA
p84
I4300
sVSaavik
p85
I18
sVmay
p86
I3061
sVafter
p87
I1333
sVthem
p88
I8921
sVbirthday
p89
I73
sVParis
p90
I703
sVman
p91
I2112
sVa
p92
I53735
sVAll
p93
I3233
sVEveryone
p94
I192
sVnatural
p95
I250
sVremember
p96
I1231
sVOne
p97
I1606
sVso
p98
I5478
sVShip
p99
I138
sVserving
p100
I70
sVcourse
p101
I3207
sVcruise
p102
I12
sVexistence
p103
I168
sVcold
p104
I195
sVgalaxy
p105
I507
sVbefore
p106
I2885
sVperfect
p107
I324
sVsuperior
p108
I159
sVouter
p109
I85
sVfix
p110
I209
sVHere
p111
I571
sVcrew
p112
I1987
sVbetter
p113
I2150
sVchoose
p114
I253
sVprosper
p115
I38
sVgood
p116
I2838
sVlunch
p117
I84
sVMaintain
p118
I129
sVCan
p119
I1275
sVthey
p120
I9440
sVnot
p121
I17178
sVrealize
p122
I12
sVControl
p123
I60
sVSimple
p124
I23
sValways
p125
I1370
sVpossibilities
p126
I76
sVtruth
p127
I675
sVfriendship
p128
I110
sVLive
p129
I51
sVstatic
p130
I21
sVforgot
p131
I117
sVgirl
p132
I335
sVout
p133
I7942
sVaccomplish
p134
I101
sVfrontier
p135
I16
sVWelcome
p136
I308
sVWarp
p137
I365
sVlooking
p138
I913
sVVulcan
p139
I1111
sVstun
p140
I130
sVThis
p141
I4699
sVrevenge
p142
I61
sVBut
p143
I6347
sVbeginning
p144
I410
sVexplorers
p145
I33
sVtraining
p146
I199
sVcould
p147
I6934
sVdays
p148
I1282
sVtimes
p149
I542
sVthing
p150
I2243
sVplace
p151
I1541
sVaboard
p152
I1266
sVfirst
p153
I2521
sVThere
p154
I5438
sVPlease
p155
I1189
sVone
p156
I9891
sVfantasy
p157
I44
sVdone
p158
I1546
sVimpossible
p159
I424
sVengineer
p160
I156
sVgiven
p161
I529
sVtheir
p162
I4480
sVleast
p163
I1020
sVLieutenant
p164
I2563
sVfinal
p165
I211
sVfriend
p166
I940
sVlisten
p167
I442
sVDo
p168
I4727
sVthat
p169
I30615
sVexactly
p170
I917
sVserve
p171
I241
sVwisdom
p172
I71
sVbelieve
p173
I2608
sVthan
p174
I3324
sVSet
p175
I266
sVsubroutine
p176
I41
sVand
p177
I26464
sVmind
p178
I1707
sVtonight
p179
I240
sVsay
p180
I3106
sVhave
p181
I25068
sVany
p182
I4591
sVscrew
p183
I7
sVefficient
p184
I121
sVthoroughly
p185
I22
sVAfter
p186
I521
sVideas
p187
I120
sVtake
p188
I4364
sVAlpha
p189
I333
sVbegin
p190
I561
sVshall
p191
I558
sVComputers
p192
I13
sVmost
p193
I1401
sVWithout
p194
I227
sVLogic
p195
I45
sVproverb
p196
I3
sVThe
p197
I14885
sVsometimes
p198
I184
sVface
p199
I526
sVEarth
p200
I1218
sVphysics
p201
I29
sVlaws
p202
I117
sVchances
p203
I134
sVparked
p204
I2
sVenjoyed
p205
I80
sVWe
p206
I17374
sVjust
p207
I6833
sVwith
p208
I14266
sVshould
p209
I4469
sVonly
p210
I3914
sVgoing
p211
I7241
sVprosecute
p212
I5
sVhis
p213
I5162
sVbeat
p214
I106
sVwords
p215
I412
sVhim
p216
I7610
sVFascinating
p217
I169
sVirritant
p218
I3
sVmorning
p219
I560
sVbrick
p220
I4
sVwhere
p221
I2093
sVFor
p222
I977
sVhumans
p223
I484
sVsee
p224
I5626
sVcomputer
p225
I1012
sVare
p226
I17719
sVbest
p227
I924
sVThat
p228
I8192
sVways
p229
I241
sVnebula
p230
I225
sVHours
p231
I6
sVgenius
p232
I43
sVenough
p233
I1952
sVconditions
p234
I151
sVwe
p235
I22667
sVmen
p236
I756
sVhowever
p237
I90
sVcoffee
p238
I130
sVnews
p239
I296
sVYours
p240
I36
sVfaced
p241
I52
sVboth
p242
I1008
sVmany
p243
I1295
sVBring
p244
I254
sVComputer
p245
I1116
sVlogic
p246
I231
sVYes
p247
I5414
sVwhole
p248
I561
sVcomes
p249
I396
sVHey
p250
I432
sVwhatever
p251
I542
sVbeen
p252
I8008
sV.
p253
I346456
sVmuch
p254
I2815
sVexpected
p255
I202
sVTrouble
p256
I32
sVdefine
p257
I25
sVresting
p258
I15
sVlife
p259
I2945
sVpresent
p260
I417
sVAnd
p261
I6783
sVstraight
p262
I184
sVLets
p263
I6
sVn't
p264
I33227
sVlayer
p265
I35
sVis
p266
I31516
sVit
p267
I35024
sVsleeping
p268
I84
sVin
p269
I25256
sVoutweigh
p270
I6
sVYou
p271
I22788
sVAdmiral
p272
I563
sVif
p273
I7190
sVdoctor
p274
I470
sVthings
p275
I1486
sVmake
p276
I3694
sVtells
p277
I199
sVBeam
p278
I165
sVfollowers
p279
I31
sVagain
p280
I2259
sVI
p281
I101623
sVMaybe
p282
I1850
sVevil
p283
I145
sVmagician
p284
I5
sVscenario
p285
I26
sVIt
p286
I17147
sVcommand
p287
I949
sVIn
p288
I2090
sVthe
p289
I95896
sVCeti
p290
I29
sVprecedence
p291
I5
sVless
p292
I629
sVmoments
p293
I95
sVhuman
p294
I1259
sVfacts
p295
I116
sVyes
p296
I639
sVspeed
p297
I561
sVyet
p298
I1268
sVdeath
p299
I859
sVdanger
p300
I336
sVsky
p301
I131
sVspread
p302
I126
sVeasy
p303
I522
sVhas
p304
I6208
sVChange
p305
I27
sVOn
p306
I1114
sVOf
p307
I1167
sVjudgement
p308
I41
sVsuffering
p309
I150
sVDefinitely
p310
I47
sVknow
p311
I10912
sVwanting
p312
I53
sVInsufficient
p313
I41
sVOr
p314
I570
sVlike
p315
I7753
sVstranger
p316
I46
sVKirk
p317
I1963
sVScotty
p318
I726
sVHighly
p319
I17
sVindication
p320
I121
sVAre
p321
I2130
sVlose
p322
I411
sVserved
p323
I126
sVfoolish
p324
I84
sVessential
p325
I43
sVright
p326
I6528
sVold
p327
I1080
sVIllogical
p328
I17
sVpeople
p329
I3713
sVsome
p330
I4741
sVdead
p331
I1204
sVborn
p332
I187
sVDamn
p333
I112
sVescape
p334
I453
sVdear
p335
I242
sVintellect
p336
I32
sVKlingon
p337
I1394
sVfor
p338
I19004
sVNobody
p339
I138
sVeverything
p340
I1230
sVcivilization
p341
I2
sVLet
p342
I2527
sVeliminate
p343
I51
sV?
p344
I61012
sVSomething
p345
I608
sVbe
p346
I22317
sVknew
p347
I976
sVUp
p348
I42
sVexciting
p349
I71
sVon
p350
I18168
sVabout
p351
I9065
sVof
p352
I45673
sVboldly
p353
I6
sVMessage
p354
I42
sVCaptain
p355
I14485
sVown
p356
I1678
sVwhats
p357
I3
sVlied
p358
I108
sVNo
p359
I7282
sVMake
p360
I330
sVson
p361
I568
sVtiny
p362
I41
sVyour
p363
I18039
sVoften
p364
I203
sVthere
p365
I8680
sVlong
p366
I2724
sVway
p367
I5025
sVwas
p368
I15577
sVinvite
p369
I55
sVWell
p370
I4635
sVbut
p371
I10118
sVhear
p372
I1286
sVhopes
p373
I59
sVtrying
p374
I1768
sVtrue
p375
I805
sVeat
p376
I289
sVwish
p377
I1179
sVConquest
p378
I1
sVgrieve
p379
I10
sVup
p380
I6115
sVus
p381
I9955
sVlimit
p382
I56
sVproblem
p383
I974
sVminutes
p384
I1343
sVdelete
p385
I43
sVgone
p386
I1001
sVconstant
p387
I92
sVSpace
p388
I255
sVam
p389
I3463
sVDismissed
p390
I142
sVan
p391
I7945
sVdeprive
p392
I8
sVTo
p393
I1113
sVas
p394
I9120
sVat
p395
I8009
sVship
p396
I6379
sVHailing
p397
I45
sVno
p398
I7649
sVMay
p399
I423
sVreality
p400
I117
sVtil
p401
I5
sVsuccessful
p402
I127
sVother
p403
I2641
sVFive
p404
I374
sVtest
p405
I425
sVyou
p406
I74471
sVreally
p407
I1729
sVstar
p408
I416
sVillogic
p409
I8
sVimportant
p410
I704
sVcheated
p411
I21
sVAh
p412
I681
sVspace
p413
I1146
sVtogether
p414
I941
sVSecond
p415
I76
sVtime
p416
I6600
sVfar
p417
I1186
sVhaving
p418
I685
sVonce
p419
I914
s.